; Function Attrs: nounwind uwtable
define ptr @ssl_generate_pkey(ptr noundef readonly captures(none) %0, ptr noundef %1) local_unnamed_addr #4 {
  %3 = alloca ptr, align 8
  call void @llvm.lifetime.start.p0(i64 8, ptr nonnull %3) #18
  store ptr null, ptr %3, align 8, !tbaa !77
  %4 = icmp eq ptr %1, null
  br i1 %4, label %23, label %5

5:                                                ; preds = %2
  %6 = getelementptr inbounds nuw i8, ptr %0, i64 8
  %7 = load ptr, ptr %6, align 8, !tbaa !222
  %8 = load ptr, ptr %7, align 8, !tbaa !235
  %9 = getelementptr inbounds nuw i8, ptr %7, i64 1152
  %10 = load ptr, ptr %9, align 8, !tbaa !239
  %11 = tail call ptr @EVP_PKEY_CTX_new_from_pkey(ptr noundef %8, ptr noundef nonnull %1, ptr noundef %10) #18
  %12 = icmp eq ptr %11, null
  br i1 %12, label %21, label %13

13:                                               ; preds = %5
  %14 = tail call i32 @EVP_PKEY_keygen_init(ptr noundef nonnull %11) #18
  %15 = icmp slt i32 %14, 1
  br i1 %15, label %21, label %16

16:                                               ; preds = %13
  %17 = call i32 @EVP_PKEY_keygen(ptr noundef nonnull %11, ptr noundef nonnull %3) #18
  %18 = icmp slt i32 %17, 1
  br i1 %18, label %19, label %21

19:                                               ; preds = %16
  %20 = load ptr, ptr %3, align 8, !tbaa !77
  call void @EVP_PKEY_free(ptr noundef %20) #18
  store ptr null, ptr %3, align 8, !tbaa !77
  br label %21

21:                                               ; preds = %16, %19, %13, %5
  call void @EVP_PKEY_CTX_free(ptr noundef %11) #18
  %22 = load ptr, ptr %3, align 8, !tbaa !77
  br label %23

23:                                               ; preds = %2, %21
  %.0 = phi ptr [ %22, %21 ], [ null, %2 ]
  call void @llvm.lifetime.end.p0(i64 8, ptr nonnull %3) #18
  ret ptr %.0
}